target datalayout = "e-m:e-p270:32:32-p271:32:32-p272:64:64-i64:64-i128:128-f80:128-n8:16:32:64-S128"
target triple = "x86_64-pc-linux-gnu"

%struct._zval_struct = type { %union._zend_value, %union.anon, %union.anon.2 }
%union._zend_value = type { i64 }
%union.anon = type { i32 }
%union.anon.2 = type { i32 }
%struct._zend_array = type { %struct._zend_refcounted_h, %union.anon.4, i32, %union.anon.6, i32, i32, i32, i32, i64, ptr }
%struct._zend_refcounted_h = type { i32, %union.anon.3 }
%union.anon.3 = type { i32 }
%union.anon.4 = type { i32 }
%union.anon.6 = type { ptr }
%struct._zend_resource = type { %struct._zend_refcounted_h, i64, i32, ptr }
%struct._zend_rsrc_list_dtors_entry = type { ptr, ptr, ptr, i32, i32 }

@list_destructors = internal global %struct._zend_array zeroinitializer, align 8

; Function Attrs: nounwind uwtable
define internal void @zend_resource_dtor(ptr noundef %0) #0 {
  %2 = alloca ptr, align 8
  %3 = alloca ptr, align 8
  %4 = alloca i64, align 8
  %5 = alloca ptr, align 8
  %6 = alloca ptr, align 8
  %7 = alloca ptr, align 8
  %8 = alloca %struct._zend_resource, align 8
  store ptr %0, ptr %6, align 8
  %9 = load ptr, ptr %6, align 8
  call void @llvm.memcpy.p0.p0.i64(ptr align 8 %8, ptr align 8 %9, i64 32, i1 false)
  %10 = load ptr, ptr %6, align 8
  %11 = getelementptr inbounds %struct._zend_resource, ptr %10, i32 0, i32 2
  store i32 -1, ptr %11, align 8
  %12 = load ptr, ptr %6, align 8
  %13 = getelementptr inbounds %struct._zend_resource, ptr %12, i32 0, i32 3
  store ptr null, ptr %13, align 8
  %14 = getelementptr inbounds %struct._zend_resource, ptr %8, i32 0, i32 2
  %15 = load i32, ptr %14, align 8
  %16 = sext i32 %15 to i64
  store ptr @list_destructors, ptr %3, align 8
  store i64 %16, ptr %4, align 8
  %17 = load ptr, ptr %3, align 8
  %18 = load i64, ptr %4, align 8
  %19 = call ptr @zend_hash_index_find(ptr noundef %17, i64 noundef %18) #11
  store ptr %19, ptr %5, align 8
  %20 = load ptr, ptr %5, align 8
  %21 = icmp ne ptr %20, null
  br i1 %21, label %22, label %28

22:                                               ; preds = %1
  %23 = load ptr, ptr %5, align 8
  %24 = load ptr, ptr %23, align 8
  %25 = icmp ne ptr %24, null
  call void @llvm.assume(i1 %25)
  %26 = load ptr, ptr %5, align 8
  %27 = load ptr, ptr %26, align 8
  store ptr %27, ptr %2, align 8
  br label %29

28:                                               ; preds = %1
  store ptr null, ptr %2, align 8
  br label %29

29:                                               ; preds = %28, %22
  %30 = load ptr, ptr %2, align 8
  store ptr %30, ptr %7, align 8
  %31 = load ptr, ptr %7, align 8
  %32 = icmp ne ptr %31, null
  br i1 %32, label %33, label %34

33:                                               ; preds = %29
  br label %34

34:                                               ; preds = %33, %29
  %35 = phi i1 [ false, %29 ], [ true, %33 ]
  call void @llvm.assume(i1 %35)
  %36 = load ptr, ptr %7, align 8
  %37 = getelementptr inbounds %struct._zend_rsrc_list_dtors_entry, ptr %36, i32 0, i32 0
  %38 = load ptr, ptr %37, align 8
  %39 = icmp ne ptr %38, null
  br i1 %39, label %40, label %44

40:                                               ; preds = %34
  %41 = load ptr, ptr %7, align 8
  %42 = getelementptr inbounds %struct._zend_rsrc_list_dtors_entry, ptr %41, i32 0, i32 0
  %43 = load ptr, ptr %42, align 8
  call void %43(ptr noundef %8)
  br label %44

44:                                               ; preds = %40, %34
  ret void
}

; Function Attrs: nounwind uwtable
define hidden void @list_entry_destructor(ptr noundef %0) #0 {
  %2 = alloca ptr, align 8
  %3 = alloca ptr, align 8
  store ptr %0, ptr %2, align 8
  %4 = load ptr, ptr %2, align 8
  %5 = getelementptr inbounds %struct._zval_struct, ptr %4, i32 0, i32 0
  %6 = load ptr, ptr %5, align 8
  store ptr %6, ptr %3, align 8
  br label %7

7:                                                ; preds = %1
  %8 = load ptr, ptr %2, align 8
  %9 = getelementptr inbounds %struct._zval_struct, ptr %8, i32 0, i32 1
  store i32 0, ptr %9, align 8
  br label %10

10:                                               ; preds = %7
  %11 = load ptr, ptr %3, align 8
  %12 = getelementptr inbounds %struct._zend_resource, ptr %11, i32 0, i32 2
  %13 = load i32, ptr %12, align 8
  %14 = icmp sge i32 %13, 0
  br i1 %14, label %15, label %17

15:                                               ; preds = %10
  %16 = load ptr, ptr %3, align 8
  call void @zend_resource_dtor(ptr noundef %16)
  br label %17

17:                                               ; preds = %15, %10
  br label %18

18:                                               ; preds = %17
  %19 = load ptr, ptr %3, align 8
  call void @_efree_32(ptr noundef %19)
  br label %20

20:                                               ; preds = %18
  ret void
}