; Function Attrs: nounwind uwtable
define hidden void @list_entry_destructor(ptr nocapture noundef %0) #0 {
  %2 = alloca %struct._zend_resource, align 8
  %3 = load ptr, ptr %0, align 8
  %4 = getelementptr inbounds i8, ptr %0, i64 8
  store i32 0, ptr %4, align 8
  %5 = getelementptr inbounds i8, ptr %3, i64 16
  %6 = load i32, ptr %5, align 8
  %7 = icmp sgt i32 %6, -1
  br i1 %7, label %8, label %17

8:                                                ; preds = %1
  call void @llvm.lifetime.start.p0(i64 32, ptr nonnull %2)
  call void @llvm.memcpy.p0.p0.i64(ptr noundef nonnull align 8 dereferenceable(32) %2, ptr noundef nonnull align 8 dereferenceable(32) %3, i64 32, i1 false)
  store i32 -1, ptr %5, align 8
  %9 = getelementptr inbounds i8, ptr %3, i64 24
  store ptr null, ptr %9, align 8
  %10 = getelementptr inbounds i8, ptr %2, i64 16
  %11 = load i32, ptr %10, align 8
  %12 = sext i32 %11 to i64
  %13 = tail call ptr @zend_hash_index_find(ptr noundef nonnull @list_destructors, i64 noundef %12) #14
  %.not.i = icmp ne ptr %13, null
  tail call void @llvm.assume(i1 %.not.i)
  %14 = load ptr, ptr %13, align 8, !nonnull !4, !noundef !4
  %15 = load ptr, ptr %14, align 8
  %.not13.i = icmp eq ptr %15, null
  br i1 %.not13.i, label %zend_resource_dtor.exit, label %16

16:                                               ; preds = %8
  call void %15(ptr noundef nonnull %2) #14
  br label %zend_resource_dtor.exit

zend_resource_dtor.exit:                          ; preds = %8, %16
  call void @llvm.lifetime.end.p0(i64 32, ptr nonnull %2)
  br label %17

17:                                               ; preds = %1, %zend_resource_dtor.exit
  call void @_efree_32(ptr noundef nonnull %3) #14
  ret void
}